; ModuleID = '60/1778.c'
source_filename = "60/1778.c"
target datalayout = "e-m:e-p270:32:32-p271:32:32-p272:64:64-i64:64-f80:128-n8:16:32:64-S128"
target triple = "x86_64-pc-linux-gnu"

@s = dso_local global [1500 x i32] zeroinitializer, align 16
@.str = private unnamed_addr constant [3 x i8] c"%d\00", align 1
@.str.1 = private unnamed_addr constant [6 x i8] c"empty\00", align 1
@.str.2 = private unnamed_addr constant [7 x i8] c"%d %d\0A\00", align 1

; Function Attrs: noinline nounwind uwtable
define dso_local i32 @main() #0 {
  %1 = alloca i32, align 4
  %2 = alloca i32, align 4
  %3 = alloca i32, align 4
  %4 = alloca i32, align 4
  %5 = alloca i32, align 4
  %6 = alloca i32, align 4
  store i32 0, i32* %1, align 4
  store i32 1, i32* %2, align 4
  store i32 0, i32* %3, align 4
  store i32 1, i32* %4, align 4
  store i32 0, i32* %5, align 4
  br label %7

7:                                                ; preds = %38, %0
  %8 = load i32, i32* %5, align 4
  %9 = icmp slt i32 %8, 1500
  br i1 %9, label %10, label %41

10:                                               ; preds = %7
  br label %11

11:                                               ; preds = %25, %10
  %12 = load i32, i32* %4, align 4
  %13 = load i32, i32* %2, align 4
  %14 = icmp sle i32 %12, %13
  br i1 %14, label %15, label %28

15:                                               ; preds = %11
  %16 = load i32, i32* %2, align 4
  %17 = load i32, i32* %4, align 4
  %18 = srem i32 %16, %17
  %19 = icmp eq i32 %18, 0
  br i1 %19, label %20, label %23

20:                                               ; preds = %15
  %21 = load i32, i32* %3, align 4
  %22 = add nsw i32 %21, 1
  store i32 %22, i32* %3, align 4
  br label %25

23:                                               ; preds = %15
  %24 = load i32, i32* %3, align 4
  store i32 %24, i32* %3, align 4
  br label %25

25:                                               ; preds = %23, %20
  %26 = load i32, i32* %4, align 4
  %27 = add nsw i32 %26, 1
  store i32 %27, i32* %4, align 4
  br label %11

28:                                               ; preds = %11
  %29 = load i32, i32* %3, align 4
  %30 = icmp eq i32 %29, 2
  br i1 %30, label %31, label %38

31:                                               ; preds = %28
  %32 = load i32, i32* %2, align 4
  %33 = load i32, i32* %5, align 4
  %34 = sext i32 %33 to i64
  %35 = getelementptr inbounds [1500 x i32], [1500 x i32]* @s, i64 0, i64 %34
  store i32 %32, i32* %35, align 4
  %36 = load i32, i32* %5, align 4
  %37 = add nsw i32 %36, 1
  store i32 %37, i32* %5, align 4
  br label %38

38:                                               ; preds = %31, %28
  store i32 0, i32* %3, align 4
  store i32 1, i32* %4, align 4
  %39 = load i32, i32* %2, align 4
  %40 = add nsw i32 %39, 1
  store i32 %40, i32* %2, align 4
  br label %7

41:                                               ; preds = %7
  %42 = call i32 (i8*, ...) @__isoc99_scanf(i8* getelementptr inbounds ([3 x i8], [3 x i8]* @.str, i64 0, i64 0), i32* %6)
  %43 = load i32, i32* %6, align 4
  %44 = icmp slt i32 %43, 5
  br i1 %44, label %45, label %47

45:                                               ; preds = %41
  %46 = call i32 (i8*, ...) @printf(i8* getelementptr inbounds ([6 x i8], [6 x i8]* @.str.1, i64 0, i64 0))
  br label %87

47:                                               ; preds = %41
  store i32 1, i32* %3, align 4
  br label %48

48:                                               ; preds = %83, %47
  %49 = load i32, i32* %3, align 4
  %50 = icmp slt i32 %49, 1500
  br i1 %50, label %51, label %86

51:                                               ; preds = %48
  %52 = load i32, i32* %3, align 4
  %53 = sext i32 %52 to i64
  %54 = getelementptr inbounds [1500 x i32], [1500 x i32]* @s, i64 0, i64 %53
  %55 = load i32, i32* %54, align 4
  %56 = load i32, i32* %6, align 4
  %57 = icmp sgt i32 %55, %56
  br i1 %57, label %58, label %59

58:                                               ; preds = %51
  br label %86

59:                                               ; preds = %51
  %60 = load i32, i32* %3, align 4
  %61 = sext i32 %60 to i64
  %62 = getelementptr inbounds [1500 x i32], [1500 x i32]* @s, i64 0, i64 %61
  %63 = load i32, i32* %62, align 4
  %64 = load i32, i32* %3, align 4
  %65 = sub nsw i32 %64, 1
  %66 = sext i32 %65 to i64
  %67 = getelementptr inbounds [1500 x i32], [1500 x i32]* @s, i64 0, i64 %66
  %68 = load i32, i32* %67, align 4
  %69 = sub nsw i32 %63, %68
  %70 = icmp eq i32 %69, 2
  br i1 %70, label %71, label %82

71:                                               ; preds = %59
  %72 = load i32, i32* %3, align 4
  %73 = sub nsw i32 %72, 1
  %74 = sext i32 %73 to i64
  %75 = getelementptr inbounds [1500 x i32], [1500 x i32]* @s, i64 0, i64 %74
  %76 = load i32, i32* %75, align 4
  %77 = load i32, i32* %3, align 4
  %78 = sext i32 %77 to i64
  %79 = getelementptr inbounds [1500 x i32], [1500 x i32]* @s, i64 0, i64 %78
  %80 = load i32, i32* %79, align 4
  %81 = call i32 (i8*, ...) @printf(i8* getelementptr inbounds ([7 x i8], [7 x i8]* @.str.2, i64 0, i64 0), i32 %76, i32 %80)
  br label %82

82:                                               ; preds = %71, %59
  br label %83

83:                                               ; preds = %82
  %84 = load i32, i32* %3, align 4
  %85 = add nsw i32 %84, 1
  store i32 %85, i32* %3, align 4
  br label %48

86:                                               ; preds = %58, %48
  br label %87

87:                                               ; preds = %86, %45
  ret i32 0
}

declare dso_local i32 @__isoc99_scanf(i8*, ...) #1

declare dso_local i32 @printf(i8*, ...) #1


!llvm.module.flags = !{!0}
!llvm.ident = !{!1}

!0 = !{i32 1, !"wchar_size", i32 4}
!1 = !{!"clang version 10.0.0-4ubuntu1 "}
